target datalayout = "e-m:e-p270:32:32-p271:32:32-p272:64:64-i64:64-i128:128-f80:128-n8:16:32:64-S128"
target triple = "x86_64-pc-linux-gnu"

%struct.in6_addr = type { %union.anon.5 }
%union.anon.5 = type { [4 x i32] }
%struct.uv_udp_s = type { ptr, ptr, i32, ptr, [2 x ptr], %union.anon, ptr, i32, i64, i64, ptr, ptr, %struct.uv__io_s, [2 x ptr], [2 x ptr] }
%union.anon = type { [4 x ptr] }
%struct.uv__io_s = type { ptr, [2 x ptr], [2 x ptr], i32, i32, i32 }
%struct.sockaddr_storage = type { i16, [118 x i8], i64 }
%struct.sockaddr_in6 = type { i16, i16, i32, %struct.in6_addr, i32 }
%struct.sockaddr_in = type { i16, i16, %struct.in_addr, [8 x i8] }
%struct.in_addr = type { i32 }

; Function Attrs: nounwind uwtable
define dso_local i32 @uv_udp_set_multicast_interface(ptr noundef %0, ptr noundef %1) #0 {
  %3 = alloca i32, align 4
  %4 = alloca ptr, align 8
  %5 = alloca ptr, align 8
  %6 = alloca %struct.sockaddr_storage, align 8
  %7 = alloca ptr, align 8
  %8 = alloca ptr, align 8
  store ptr %0, ptr %4, align 8
  store ptr %1, ptr %5, align 8
  store ptr %6, ptr %7, align 8
  store ptr %6, ptr %8, align 8
  %9 = load ptr, ptr %5, align 8
  %10 = icmp ne ptr %9, null
  br i1 %10, label %28, label %11

11:                                               ; preds = %2
  call void @llvm.memset.p0.i64(ptr align 8 %6, i8 0, i64 128, i1 false)
  %12 = load ptr, ptr %4, align 8
  %13 = getelementptr inbounds %struct.uv_udp_s, ptr %12, i32 0, i32 7
  %14 = load i32, ptr %13, align 8
  %15 = and i32 %14, 4194304
  %16 = icmp ne i32 %15, 0
  br i1 %16, label %17, label %21

17:                                               ; preds = %11
  %18 = getelementptr inbounds %struct.sockaddr_storage, ptr %6, i32 0, i32 0
  store i16 10, ptr %18, align 8
  %19 = load ptr, ptr %8, align 8
  %20 = getelementptr inbounds %struct.sockaddr_in6, ptr %19, i32 0, i32 4
  store i32 0, ptr %20, align 4
  br label %27

21:                                               ; preds = %11
  %22 = getelementptr inbounds %struct.sockaddr_storage, ptr %6, i32 0, i32 0
  store i16 2, ptr %22, align 8
  %23 = call i32 @htonl(i32 noundef 0) #8
  %24 = load ptr, ptr %7, align 8
  %25 = getelementptr inbounds %struct.sockaddr_in, ptr %24, i32 0, i32 2
  %26 = getelementptr inbounds %struct.in_addr, ptr %25, i32 0, i32 0
  store i32 %23, ptr %26, align 4
  br label %27

27:                                               ; preds = %21, %17
  br label %43

28:                                               ; preds = %2
  %29 = load ptr, ptr %5, align 8
  %30 = load ptr, ptr %7, align 8
  %31 = call i32 @uv_ip4_addr(ptr noundef %29, i32 noundef 0, ptr noundef %30)
  %32 = icmp eq i32 %31, 0
  br i1 %32, label %33, label %34

33:                                               ; preds = %28
  br label %42

34:                                               ; preds = %28
  %35 = load ptr, ptr %5, align 8
  %36 = load ptr, ptr %8, align 8
  %37 = call i32 @uv_ip6_addr(ptr noundef %35, i32 noundef 0, ptr noundef %36)
  %38 = icmp eq i32 %37, 0
  br i1 %38, label %39, label %40

39:                                               ; preds = %34
  br label %41

40:                                               ; preds = %34
  store i32 -22, ptr %3, align 4
  br label %84

41:                                               ; preds = %39
  br label %42

42:                                               ; preds = %41, %33
  br label %43

43:                                               ; preds = %42, %27
  %44 = getelementptr inbounds %struct.sockaddr_storage, ptr %6, i32 0, i32 0
  %45 = load i16, ptr %44, align 8
  %46 = zext i16 %45 to i32
  %47 = icmp eq i32 %46, 2
  br i1 %47, label %48, label %62

48:                                               ; preds = %43
  %49 = load ptr, ptr %4, align 8
  %50 = getelementptr inbounds %struct.uv_udp_s, ptr %49, i32 0, i32 12
  %51 = getelementptr inbounds %struct.uv__io_s, ptr %50, i32 0, i32 5
  %52 = load i32, ptr %51, align 8
  %53 = load ptr, ptr %7, align 8
  %54 = getelementptr inbounds %struct.sockaddr_in, ptr %53, i32 0, i32 2
  %55 = call i32 @setsockopt(i32 noundef %52, i32 noundef 0, i32 noundef 32, ptr noundef %54, i32 noundef 4) #7
  %56 = icmp eq i32 %55, -1
  br i1 %56, label %57, label %61

57:                                               ; preds = %48
  %58 = call ptr @__errno_location() #8
  %59 = load i32, ptr %58, align 4
  %60 = sub nsw i32 0, %59
  store i32 %60, ptr %3, align 4
  br label %84

61:                                               ; preds = %48
  br label %83

62:                                               ; preds = %43
  %63 = getelementptr inbounds %struct.sockaddr_storage, ptr %6, i32 0, i32 0
  %64 = load i16, ptr %63, align 8
  %65 = zext i16 %64 to i32
  %66 = icmp eq i32 %65, 10
  br i1 %66, label %67, label %81

67:                                               ; preds = %62
  %68 = load ptr, ptr %4, align 8
  %69 = getelementptr inbounds %struct.uv_udp_s, ptr %68, i32 0, i32 12
  %70 = getelementptr inbounds %struct.uv__io_s, ptr %69, i32 0, i32 5
  %71 = load i32, ptr %70, align 8
  %72 = load ptr, ptr %8, align 8
  %73 = getelementptr inbounds %struct.sockaddr_in6, ptr %72, i32 0, i32 4
  %74 = call i32 @setsockopt(i32 noundef %71, i32 noundef 41, i32 noundef 17, ptr noundef %73, i32 noundef 4) #7
  %75 = icmp eq i32 %74, -1
  br i1 %75, label %76, label %80

76:                                               ; preds = %67
  %77 = call ptr @__errno_location() #8
  %78 = load i32, ptr %77, align 4
  %79 = sub nsw i32 0, %78
  store i32 %79, ptr %3, align 4
  br label %84

80:                                               ; preds = %67
  br label %82

81:                                               ; preds = %62
  call void @abort() #9
  unreachable

82:                                               ; preds = %80
  br label %83

83:                                               ; preds = %82, %61
  store i32 0, ptr %3, align 4
  br label %84

84:                                               ; preds = %83, %76, %57, %40
  %85 = load i32, ptr %3, align 4
  ret i32 %85
}