; Function Attrs: nounwind uwtable
define dso_local range(i32 -2147483647, -2147483648) i32 @uv_udp_set_multicast_interface(ptr noundef readonly captures(none) %0, ptr noundef %1) local_unnamed_addr #0 {
  %3 = alloca %struct.sockaddr_storage, align 8
  %.not = icmp eq ptr %1, null
  br i1 %.not, label %4, label %10

4:                                                ; preds = %2
  call void @llvm.memset.p0.i64(ptr noundef nonnull align 8 dereferenceable(128) %3, i8 0, i64 128, i1 false)
  %5 = getelementptr inbounds nuw i8, ptr %0, i64 88
  %6 = load i32, ptr %5, align 8
  %7 = and i32 %6, 4194304
  %.not14 = icmp eq i32 %7, 0
  br i1 %.not14, label %.thread, label %.thread15

.thread15:                                        ; preds = %4
  store i16 10, ptr %3, align 8
  br label %23

.thread:                                          ; preds = %4
  store i16 2, ptr %3, align 8
  %8 = tail call i32 @htonl(i32 noundef 0) #10
  %9 = getelementptr inbounds nuw i8, ptr %3, i64 4
  store i32 %8, ptr %9, align 4
  br label %17

10:                                               ; preds = %2
  %11 = call i32 @uv_ip4_addr(ptr noundef nonnull %1, i32 noundef 0, ptr noundef nonnull %3) #9
  %12 = icmp eq i32 %11, 0
  br i1 %12, label %16, label %13

13:                                               ; preds = %10
  %14 = call i32 @uv_ip6_addr(ptr noundef nonnull %1, i32 noundef 0, ptr noundef nonnull %3) #9
  %15 = icmp eq i32 %14, 0
  br i1 %15, label %16, label %33

16:                                               ; preds = %10, %13
  %.pr = load i16, ptr %3, align 8
  switch i16 %.pr, label %29 [
    i16 2, label %17
    i16 10, label %23
  ]

17:                                               ; preds = %.thread, %16
  %18 = getelementptr inbounds nuw i8, ptr %0, i64 176
  %19 = load i32, ptr %18, align 8
  %20 = getelementptr inbounds nuw i8, ptr %3, i64 4
  %21 = call i32 @setsockopt(i32 noundef %19, i32 noundef 0, i32 noundef 32, ptr noundef nonnull %20, i32 noundef 4) #9
  %22 = icmp eq i32 %21, -1
  br i1 %22, label %.sink.split, label %33

23:                                               ; preds = %.thread15, %16
  %24 = getelementptr inbounds nuw i8, ptr %0, i64 176
  %25 = load i32, ptr %24, align 8
  %26 = getelementptr inbounds nuw i8, ptr %3, i64 24
  %27 = call i32 @setsockopt(i32 noundef %25, i32 noundef 41, i32 noundef 17, ptr noundef nonnull %26, i32 noundef 4) #9
  %28 = icmp eq i32 %27, -1
  br i1 %28, label %.sink.split, label %33

29:                                               ; preds = %16
  call void @abort() #11
  unreachable

.sink.split:                                      ; preds = %23, %17
  %30 = tail call ptr @__errno_location() #10
  %31 = load i32, ptr %30, align 4
  %32 = sub nsw i32 0, %31
  br label %33

33:                                               ; preds = %.sink.split, %17, %23, %13
  %.0 = phi i32 [ -22, %13 ], [ 0, %23 ], [ 0, %17 ], [ %32, %.sink.split ]
  ret i32 %.0
}